target datalayout = "e-m:e-p270:32:32-p271:32:32-p272:64:64-i64:64-i128:128-f80:128-n8:16:32:64-S128"
target triple = "x86_64-pc-linux-gnu"

@.str.3 = private unnamed_addr constant [1 x i8] zeroinitializer, align 1

; Function Attrs: inlinehint mustprogress nounwind uwtable
define internal noundef signext i8 @_ZL9U_FAILURE10UErrorCode(i32 noundef %0) #7 {
  %2 = alloca i32, align 4
  store i32 %0, ptr %2, align 4, !tbaa !29
  %3 = load i32, ptr %2, align 4, !tbaa !29
  %4 = icmp sgt i32 %3, 0
  %5 = zext i1 %4 to i8
  ret i8 %5
}

; Function Attrs: mustprogress uwtable
define ptr @findDirname(ptr noundef %0, ptr noundef %1, i32 noundef %2, ptr noundef %3) #1 {
  %5 = alloca ptr, align 8
  %6 = alloca ptr, align 8
  %7 = alloca ptr, align 8
  %8 = alloca i32, align 4
  %9 = alloca ptr, align 8
  %10 = alloca ptr, align 8
  %11 = alloca i32, align 4
  %12 = alloca ptr, align 8
  %13 = alloca i32, align 4
  store ptr %0, ptr %6, align 8, !tbaa !44
  store ptr %1, ptr %7, align 8, !tbaa !44
  store i32 %2, ptr %8, align 4, !tbaa !22
  store ptr %3, ptr %9, align 8, !tbaa !26
  %14 = load ptr, ptr %9, align 8, !tbaa !26
  %15 = load i32, ptr %14, align 4, !tbaa !29
  %16 = call noundef signext i8 @_ZL9U_FAILURE10UErrorCode(i32 noundef %15)
  %17 = icmp ne i8 %16, 0
  br i1 %17, label %18, label %19

18:                                               ; preds = %4
  store ptr null, ptr %5, align 8
  br label %56

19:                                               ; preds = %4
  call void @llvm.lifetime.start.p0(i64 8, ptr %10) #14
  store ptr null, ptr %10, align 8, !tbaa !44
  call void @llvm.lifetime.start.p0(i64 4, ptr %11) #14
  store i32 0, ptr %11, align 4, !tbaa !22
  call void @llvm.lifetime.start.p0(i64 8, ptr %12) #14
  %20 = load ptr, ptr %6, align 8, !tbaa !44
  %21 = call noundef ptr @strrchr(ptr noundef %20, i32 noundef 47) #16
  store ptr %21, ptr %12, align 8, !tbaa !44
  %22 = load ptr, ptr %12, align 8, !tbaa !44
  %23 = icmp ne ptr %22, null
  br i1 %23, label %25, label %24

24:                                               ; preds = %19
  store ptr @.str.3, ptr %10, align 8, !tbaa !44
  store i32 0, ptr %11, align 4, !tbaa !22
  br label %37

25:                                               ; preds = %19
  %26 = load ptr, ptr %6, align 8, !tbaa !44
  store ptr %26, ptr %10, align 8, !tbaa !44
  %27 = load ptr, ptr %12, align 8, !tbaa !44
  %28 = load ptr, ptr %6, align 8, !tbaa !44
  %29 = ptrtoint ptr %27 to i64
  %30 = ptrtoint ptr %28 to i64
  %31 = sub i64 %29, %30
  %32 = trunc i64 %31 to i32
  store i32 %32, ptr %11, align 4, !tbaa !22
  %33 = load i32, ptr %11, align 4, !tbaa !22
  %34 = icmp slt i32 %33, 1
  br i1 %34, label %35, label %36

35:                                               ; preds = %25
  store i32 1, ptr %11, align 4, !tbaa !22
  br label %36

36:                                               ; preds = %35, %25
  br label %37

37:                                               ; preds = %36, %24
  %38 = load i32, ptr %11, align 4, !tbaa !22
  %39 = add nsw i32 %38, 1
  %40 = load i32, ptr %8, align 4, !tbaa !22
  %41 = icmp sle i32 %39, %40
  br i1 %41, label %42, label %53

42:                                               ; preds = %37
  %43 = load ptr, ptr %7, align 8, !tbaa !44
  %44 = load ptr, ptr %10, align 8, !tbaa !44
  %45 = load i32, ptr %11, align 4, !tbaa !22
  %46 = sext i32 %45 to i64
  %47 = call ptr @strncpy(ptr noundef %43, ptr noundef %44, i64 noundef %46) #14
  %48 = load ptr, ptr %7, align 8, !tbaa !44
  %49 = load i32, ptr %11, align 4, !tbaa !22
  %50 = sext i32 %49 to i64
  %51 = getelementptr inbounds i8, ptr %48, i64 %50
  store i8 0, ptr %51, align 1, !tbaa !45
  %52 = load ptr, ptr %7, align 8, !tbaa !44
  store ptr %52, ptr %5, align 8
  store i32 1, ptr %13, align 4
  br label %55

53:                                               ; preds = %37
  %54 = load ptr, ptr %9, align 8, !tbaa !26
  store i32 15, ptr %54, align 4, !tbaa !29
  store ptr null, ptr %5, align 8
  store i32 1, ptr %13, align 4
  br label %55

55:                                               ; preds = %53, %42
  call void @llvm.lifetime.end.p0(i64 8, ptr %12) #14
  call void @llvm.lifetime.end.p0(i64 4, ptr %11) #14
  call void @llvm.lifetime.end.p0(i64 8, ptr %10) #14
  br label %56

56:                                               ; preds = %55, %18
  %57 = load ptr, ptr %5, align 8
  ret ptr %57
}