; Function Attrs: mustprogress nofree nounwind willreturn memory(readwrite, inaccessiblemem: none) uwtable
define noundef ptr @findDirname(ptr noundef %0, ptr noundef %1, i32 noundef %2, ptr noundef captures(none) %3) local_unnamed_addr #11 {
  %5 = load i32, ptr %3, align 4, !tbaa !16
  %6 = icmp slt i32 %5, 1
  br i1 %6, label %7, label %18

7:                                                ; preds = %4
  %8 = tail call noundef ptr @strrchr(ptr noundef nonnull dereferenceable(1) %0, i32 noundef 47) #26
  %.not19 = icmp eq ptr %8, null
  %9 = ptrtoint ptr %8 to i64
  %10 = ptrtoint ptr %0 to i64
  %11 = sub i64 %9, %10
  %12 = trunc i64 %11 to i32
  %spec.store.select = tail call i32 @llvm.smax.i32(i32 %12, i32 1)
  %.016 = select i1 %.not19, i32 0, i32 %spec.store.select
  %.not20.not = icmp slt i32 %.016, %2
  br i1 %.not20.not, label %13, label %17

13:                                               ; preds = %7
  %.017 = select i1 %.not19, ptr @.str.3, ptr %0
  %14 = zext nneg i32 %.016 to i64
  %15 = tail call ptr @strncpy(ptr noundef %1, ptr noundef nonnull %.017, i64 noundef %14) #23
  %16 = getelementptr inbounds nuw i8, ptr %1, i64 %14
  store i8 0, ptr %16, align 1, !tbaa !25
  br label %18

17:                                               ; preds = %7
  store i32 15, ptr %3, align 4, !tbaa !16
  br label %18

18:                                               ; preds = %13, %17, %4
  %.0 = phi ptr [ null, %4 ], [ %1, %13 ], [ null, %17 ]
  ret ptr %.0
}